target datalayout = "e-m:e-p270:32:32-p271:32:32-p272:64:64-i64:64-i128:128-f80:128-n8:16:32:64-S128"
target triple = "x86_64-pc-linux-gnu"

@.str = private unnamed_addr constant [12 x i8] c"ObjectSpace\00", align 1
@.str.1 = private unnamed_addr constant [8 x i8] c"WeakMap\00", align 1
@rb_cObject = external global i64, align 8
@.str.2 = private unnamed_addr constant [4 x i8] c"[]=\00", align 1
@.str.3 = private unnamed_addr constant [3 x i8] c"[]\00", align 1
@.str.4 = private unnamed_addr constant [7 x i8] c"delete\00", align 1
@.str.5 = private unnamed_addr constant [9 x i8] c"include?\00", align 1
@.str.6 = private unnamed_addr constant [8 x i8] c"member?\00", align 1
@.str.7 = private unnamed_addr constant [5 x i8] c"key?\00", align 1
@.str.8 = private unnamed_addr constant [8 x i8] c"inspect\00", align 1
@.str.9 = private unnamed_addr constant [5 x i8] c"each\00", align 1
@.str.10 = private unnamed_addr constant [10 x i8] c"each_pair\00", align 1
@.str.11 = private unnamed_addr constant [9 x i8] c"each_key\00", align 1
@.str.12 = private unnamed_addr constant [11 x i8] c"each_value\00", align 1
@.str.13 = private unnamed_addr constant [5 x i8] c"keys\00", align 1
@.str.14 = private unnamed_addr constant [7 x i8] c"values\00", align 1
@.str.15 = private unnamed_addr constant [5 x i8] c"size\00", align 1
@.str.16 = private unnamed_addr constant [7 x i8] c"length\00", align 1
@rb_mEnumerable = external global i64, align 8
@.str.17 = private unnamed_addr constant [11 x i8] c"WeakKeyMap\00", align 1
@.str.18 = private unnamed_addr constant [7 x i8] c"getkey\00", align 1
@.str.19 = private unnamed_addr constant [6 x i8] c"clear\00", align 1

; Function Attrs: nounwind sspstrong uwtable
define hidden void @Init_WeakMap() #0 {
  %1 = alloca i64, align 8
  %2 = alloca i64, align 8
  %3 = alloca i64, align 8
  call void @llvm.lifetime.start.p0(i64 8, ptr %1) #15
  %4 = call i64 @rb_define_module(ptr noundef @.str)
  store i64 %4, ptr %1, align 8, !tbaa !7
  call void @llvm.lifetime.start.p0(i64 8, ptr %2) #15
  %5 = load i64, ptr %1, align 8, !tbaa !7
  %6 = load i64, ptr @rb_cObject, align 8, !tbaa !7
  %7 = call i64 @rb_define_class_under(i64 noundef %5, ptr noundef @.str.1, i64 noundef %6)
  store i64 %7, ptr %2, align 8, !tbaa !7
  %8 = load i64, ptr %2, align 8, !tbaa !7
  call void @rb_define_alloc_func(i64 noundef %8, ptr noundef @wmap_allocate)
  %9 = load i64, ptr %2, align 8, !tbaa !7
  call void @rb_define_method(i64 noundef %9, ptr noundef @.str.2, ptr noundef @wmap_aset, i32 noundef 2)
  %10 = load i64, ptr %2, align 8, !tbaa !7
  call void @rb_define_method(i64 noundef %10, ptr noundef @.str.3, ptr noundef @wmap_aref, i32 noundef 1)
  %11 = load i64, ptr %2, align 8, !tbaa !7
  call void @rb_define_method(i64 noundef %11, ptr noundef @.str.4, ptr noundef @wmap_delete, i32 noundef 1)
  %12 = load i64, ptr %2, align 8, !tbaa !7
  call void @rb_define_method(i64 noundef %12, ptr noundef @.str.5, ptr noundef @wmap_has_key, i32 noundef 1)
  %13 = load i64, ptr %2, align 8, !tbaa !7
  call void @rb_define_method(i64 noundef %13, ptr noundef @.str.6, ptr noundef @wmap_has_key, i32 noundef 1)
  %14 = load i64, ptr %2, align 8, !tbaa !7
  call void @rb_define_method(i64 noundef %14, ptr noundef @.str.7, ptr noundef @wmap_has_key, i32 noundef 1)
  %15 = load i64, ptr %2, align 8, !tbaa !7
  call void @rb_define_method(i64 noundef %15, ptr noundef @.str.8, ptr noundef @wmap_inspect, i32 noundef 0)
  %16 = load i64, ptr %2, align 8, !tbaa !7
  call void @rb_define_method(i64 noundef %16, ptr noundef @.str.9, ptr noundef @wmap_each, i32 noundef 0)
  %17 = load i64, ptr %2, align 8, !tbaa !7
  call void @rb_define_method(i64 noundef %17, ptr noundef @.str.10, ptr noundef @wmap_each, i32 noundef 0)
  %18 = load i64, ptr %2, align 8, !tbaa !7
  call void @rb_define_method(i64 noundef %18, ptr noundef @.str.11, ptr noundef @wmap_each_key, i32 noundef 0)
  %19 = load i64, ptr %2, align 8, !tbaa !7
  call void @rb_define_method(i64 noundef %19, ptr noundef @.str.12, ptr noundef @wmap_each_value, i32 noundef 0)
  %20 = load i64, ptr %2, align 8, !tbaa !7
  call void @rb_define_method(i64 noundef %20, ptr noundef @.str.13, ptr noundef @wmap_keys, i32 noundef 0)
  %21 = load i64, ptr %2, align 8, !tbaa !7
  call void @rb_define_method(i64 noundef %21, ptr noundef @.str.14, ptr noundef @wmap_values, i32 noundef 0)
  %22 = load i64, ptr %2, align 8, !tbaa !7
  call void @rb_define_method(i64 noundef %22, ptr noundef @.str.15, ptr noundef @wmap_size, i32 noundef 0)
  %23 = load i64, ptr %2, align 8, !tbaa !7
  call void @rb_define_method(i64 noundef %23, ptr noundef @.str.16, ptr noundef @wmap_size, i32 noundef 0)
  %24 = load i64, ptr %2, align 8, !tbaa !7
  %25 = load i64, ptr @rb_mEnumerable, align 8, !tbaa !7
  call void @rb_include_module(i64 noundef %24, i64 noundef %25)
  call void @llvm.lifetime.start.p0(i64 8, ptr %3) #15
  %26 = load i64, ptr %1, align 8, !tbaa !7
  %27 = load i64, ptr @rb_cObject, align 8, !tbaa !7
  %28 = call i64 @rb_define_class_under(i64 noundef %26, ptr noundef @.str.17, i64 noundef %27)
  store i64 %28, ptr %3, align 8, !tbaa !7
  %29 = load i64, ptr %3, align 8, !tbaa !7
  call void @rb_define_alloc_func(i64 noundef %29, ptr noundef @wkmap_allocate)
  %30 = load i64, ptr %3, align 8, !tbaa !7
  call void @rb_define_method(i64 noundef %30, ptr noundef @.str.2, ptr noundef @wkmap_aset, i32 noundef 2)
  %31 = load i64, ptr %3, align 8, !tbaa !7
  call void @rb_define_method(i64 noundef %31, ptr noundef @.str.3, ptr noundef @wkmap_aref, i32 noundef 1)
  %32 = load i64, ptr %3, align 8, !tbaa !7
  call void @rb_define_method(i64 noundef %32, ptr noundef @.str.4, ptr noundef @wkmap_delete, i32 noundef 1)
  %33 = load i64, ptr %3, align 8, !tbaa !7
  call void @rb_define_method(i64 noundef %33, ptr noundef @.str.18, ptr noundef @wkmap_getkey, i32 noundef 1)
  %34 = load i64, ptr %3, align 8, !tbaa !7
  call void @rb_define_method(i64 noundef %34, ptr noundef @.str.7, ptr noundef @wkmap_has_key, i32 noundef 1)
  %35 = load i64, ptr %3, align 8, !tbaa !7
  call void @rb_define_method(i64 noundef %35, ptr noundef @.str.19, ptr noundef @wkmap_clear, i32 noundef 0)
  %36 = load i64, ptr %3, align 8, !tbaa !7
  call void @rb_define_method(i64 noundef %36, ptr noundef @.str.8, ptr noundef @wkmap_inspect, i32 noundef 0)
  call void @llvm.lifetime.end.p0(i64 8, ptr %3) #15
  call void @llvm.lifetime.end.p0(i64 8, ptr %2) #15
  call void @llvm.lifetime.end.p0(i64 8, ptr %1) #15
  ret void
}