; Function Attrs: nounwind sspstrong uwtable
define hidden void @Init_WeakMap() local_unnamed_addr #0 {
  %1 = tail call i64 @rb_define_module(ptr noundef nonnull @.str) #10
  %2 = load i64, ptr @rb_cObject, align 8, !tbaa !7
  %3 = tail call i64 @rb_define_class_under(i64 noundef %1, ptr noundef nonnull @.str.1, i64 noundef %2) #10
  tail call void @rb_define_alloc_func(i64 noundef %3, ptr noundef nonnull @wmap_allocate) #10
  tail call void @rb_define_method(i64 noundef %3, ptr noundef nonnull @.str.2, ptr noundef nonnull @wmap_aset, i32 noundef 2) #10
  tail call void @rb_define_method(i64 noundef %3, ptr noundef nonnull @.str.3, ptr noundef nonnull @wmap_aref, i32 noundef 1) #10
  tail call void @rb_define_method(i64 noundef %3, ptr noundef nonnull @.str.4, ptr noundef nonnull @wmap_delete, i32 noundef 1) #10
  tail call void @rb_define_method(i64 noundef %3, ptr noundef nonnull @.str.5, ptr noundef nonnull @wmap_has_key, i32 noundef 1) #10
  tail call void @rb_define_method(i64 noundef %3, ptr noundef nonnull @.str.6, ptr noundef nonnull @wmap_has_key, i32 noundef 1) #10
  tail call void @rb_define_method(i64 noundef %3, ptr noundef nonnull @.str.7, ptr noundef nonnull @wmap_has_key, i32 noundef 1) #10
  tail call void @rb_define_method(i64 noundef %3, ptr noundef nonnull @.str.8, ptr noundef nonnull @wmap_inspect, i32 noundef 0) #10
  tail call void @rb_define_method(i64 noundef %3, ptr noundef nonnull @.str.9, ptr noundef nonnull @wmap_each, i32 noundef 0) #10
  tail call void @rb_define_method(i64 noundef %3, ptr noundef nonnull @.str.10, ptr noundef nonnull @wmap_each, i32 noundef 0) #10
  tail call void @rb_define_method(i64 noundef %3, ptr noundef nonnull @.str.11, ptr noundef nonnull @wmap_each_key, i32 noundef 0) #10
  tail call void @rb_define_method(i64 noundef %3, ptr noundef nonnull @.str.12, ptr noundef nonnull @wmap_each_value, i32 noundef 0) #10
  tail call void @rb_define_method(i64 noundef %3, ptr noundef nonnull @.str.13, ptr noundef nonnull @wmap_keys, i32 noundef 0) #10
  tail call void @rb_define_method(i64 noundef %3, ptr noundef nonnull @.str.14, ptr noundef nonnull @wmap_values, i32 noundef 0) #10
  tail call void @rb_define_method(i64 noundef %3, ptr noundef nonnull @.str.15, ptr noundef nonnull @wmap_size, i32 noundef 0) #10
  tail call void @rb_define_method(i64 noundef %3, ptr noundef nonnull @.str.16, ptr noundef nonnull @wmap_size, i32 noundef 0) #10
  %4 = load i64, ptr @rb_mEnumerable, align 8, !tbaa !7
  tail call void @rb_include_module(i64 noundef %3, i64 noundef %4) #10
  %5 = load i64, ptr @rb_cObject, align 8, !tbaa !7
  %6 = tail call i64 @rb_define_class_under(i64 noundef %1, ptr noundef nonnull @.str.17, i64 noundef %5) #10
  tail call void @rb_define_alloc_func(i64 noundef %6, ptr noundef nonnull @wkmap_allocate) #10
  tail call void @rb_define_method(i64 noundef %6, ptr noundef nonnull @.str.2, ptr noundef nonnull @wkmap_aset, i32 noundef 2) #10
  tail call void @rb_define_method(i64 noundef %6, ptr noundef nonnull @.str.3, ptr noundef nonnull @wkmap_aref, i32 noundef 1) #10
  tail call void @rb_define_method(i64 noundef %6, ptr noundef nonnull @.str.4, ptr noundef nonnull @wkmap_delete, i32 noundef 1) #10
  tail call void @rb_define_method(i64 noundef %6, ptr noundef nonnull @.str.18, ptr noundef nonnull @wkmap_getkey, i32 noundef 1) #10
  tail call void @rb_define_method(i64 noundef %6, ptr noundef nonnull @.str.7, ptr noundef nonnull @wkmap_has_key, i32 noundef 1) #10
  tail call void @rb_define_method(i64 noundef %6, ptr noundef nonnull @.str.19, ptr noundef nonnull @wkmap_clear, i32 noundef 0) #10
  tail call void @rb_define_method(i64 noundef %6, ptr noundef nonnull @.str.8, ptr noundef nonnull @wkmap_inspect, i32 noundef 0) #10
  ret void
}